target datalayout = "e-m:e-p270:32:32-p271:32:32-p272:64:64-i64:64-i128:128-f80:128-n8:16:32:64-S128"
target triple = "x86_64-pc-linux-gnu"

%struct.Aig_Man_t_ = type { ptr, ptr, ptr, ptr, ptr, ptr, ptr, %struct.Aig_Obj_t_, i32, i32, i32, i32, i32, i32, [7 x i32], i32, ptr, i32, ptr, i32, ptr, i32, i32, i32, ptr, i32, i32, i32, i32, i32, ptr, ptr, i32, ptr, ptr, i32, ptr, ptr, i32, i32, i32, ptr, ptr, ptr, ptr, ptr, ptr, ptr, ptr, ptr, ptr, ptr, ptr, ptr, ptr, i32, ptr, ptr, ptr, ptr, i32, i64, i64, i64, ptr, ptr }
%struct.Aig_Obj_t_ = type { %union.anon, ptr, ptr, i64, i32, i32, %union.anon.0 }
%union.anon = type { ptr }
%union.anon.0 = type { ptr }

; Function Attrs: nounwind uwtable
define i32 @Aig_TableCountEntries(ptr noundef %0) #0 {
  %2 = alloca ptr, align 8
  %3 = alloca ptr, align 8
  %4 = alloca i32, align 4
  %5 = alloca i32, align 4
  store ptr %0, ptr %2, align 8
  store i32 0, ptr %5, align 4
  store i32 0, ptr %4, align 4
  br label %6

6:                                                ; preds = %31, %1
  %7 = load i32, ptr %4, align 4
  %8 = load ptr, ptr %2, align 8
  %9 = getelementptr inbounds %struct.Aig_Man_t_, ptr %8, i32 0, i32 17
  %10 = load i32, ptr %9, align 8
  %11 = icmp slt i32 %7, %10
  br i1 %11, label %12, label %34

12:                                               ; preds = %6
  %13 = load ptr, ptr %2, align 8
  %14 = getelementptr inbounds %struct.Aig_Man_t_, ptr %13, i32 0, i32 16
  %15 = load ptr, ptr %14, align 8
  %16 = load i32, ptr %4, align 4
  %17 = sext i32 %16 to i64
  %18 = getelementptr inbounds ptr, ptr %15, i64 %17
  %19 = load ptr, ptr %18, align 8
  store ptr %19, ptr %3, align 8
  br label %20

20:                                               ; preds = %26, %12
  %21 = load ptr, ptr %3, align 8
  %22 = icmp ne ptr %21, null
  br i1 %22, label %23, label %30

23:                                               ; preds = %20
  %24 = load i32, ptr %5, align 4
  %25 = add nsw i32 %24, 1
  store i32 %25, ptr %5, align 4
  br label %26

26:                                               ; preds = %23
  %27 = load ptr, ptr %3, align 8
  %28 = getelementptr inbounds %struct.Aig_Obj_t_, ptr %27, i32 0, i32 0
  %29 = load ptr, ptr %28, align 8
  store ptr %29, ptr %3, align 8
  br label %20, !llvm.loop !11

30:                                               ; preds = %20
  br label %31

31:                                               ; preds = %30
  %32 = load i32, ptr %4, align 4
  %33 = add nsw i32 %32, 1
  store i32 %33, ptr %4, align 4
  br label %6, !llvm.loop !12

34:                                               ; preds = %6
  %35 = load i32, ptr %5, align 4
  ret i32 %35
}