; Function Attrs: nofree norecurse nosync nounwind memory(read, inaccessiblemem: none) uwtable
define i32 @Aig_TableCountEntries(ptr noundef readonly captures(none) %0) local_unnamed_addr #2 {
  %2 = getelementptr inbounds nuw i8, ptr %0, i64 168
  %3 = load i32, ptr %2, align 8
  %4 = icmp sgt i32 %3, 0
  br i1 %4, label %.lr.ph, label %._crit_edge

.lr.ph:                                           ; preds = %1
  %5 = getelementptr inbounds nuw i8, ptr %0, i64 160
  %6 = load ptr, ptr %5, align 8
  %wide.trip.count = zext nneg i32 %3 to i64
  br label %7

7:                                                ; preds = %.lr.ph, %11
  %indvars.iv = phi i64 [ 0, %.lr.ph ], [ %indvars.iv.next, %11 ]
  %.011 = phi i32 [ 0, %.lr.ph ], [ %.1, %11 ]
  %8 = getelementptr inbounds nuw ptr, ptr %6, i64 %indvars.iv
  br label %9

9:                                                ; preds = %9, %7
  %.09.in = phi ptr [ %8, %7 ], [ %.09, %9 ]
  %.1 = phi i32 [ %.011, %7 ], [ %10, %9 ]
  %.09 = load ptr, ptr %.09.in, align 8
  %.not = icmp eq ptr %.09, null
  %10 = add nsw i32 %.1, 1
  br i1 %.not, label %11, label %9, !llvm.loop !11

11:                                               ; preds = %9
  %indvars.iv.next = add nuw nsw i64 %indvars.iv, 1
  %exitcond.not = icmp eq i64 %indvars.iv.next, %wide.trip.count
  br i1 %exitcond.not, label %._crit_edge, label %7, !llvm.loop !12

._crit_edge:                                      ; preds = %11, %1
  %.0.lcssa = phi i32 [ 0, %1 ], [ %.1, %11 ]
  ret i32 %.0.lcssa
}